target datalayout = "e-m:e-p270:32:32-p271:32:32-p272:64:64-i64:64-i128:128-f80:128-n8:16:32:64-S128"
target triple = "x86_64-pc-linux-gnu"

%struct.hb_draw_funcs_t = type { %struct.hb_object_header_t, %struct.anon, ptr, ptr }
%struct.hb_object_header_t = type { %struct.hb_reference_count_t, %struct.hb_atomic_int_t, %struct.hb_atomic_ptr_t }
%struct.hb_reference_count_t = type { %struct.hb_atomic_int_t }
%struct.hb_atomic_int_t = type { i32 }
%struct.hb_atomic_ptr_t = type { ptr }
%struct.anon = type { ptr, ptr, ptr, ptr, ptr }

@.str = private unnamed_addr constant [7 x i8] c"OBJECT\00", align 1
@.str.1 = private unnamed_addr constant [15 x i8] c"%s refcount=%d\00", align 1
@__PRETTY_FUNCTION__._ZL19hb_object_referenceI15hb_draw_funcs_tEPT_S2_ = private unnamed_addr constant [59 x i8] c"Type *hb_object_reference(Type *) [Type = hb_draw_funcs_t]\00", align 1

; Function Attrs: mustprogress nounwind uwtable
define linkonce_odr hidden noundef i32 @_ZNK15hb_atomic_int_t11get_relaxedEv(ptr noundef nonnull align 4 dereferenceable(4) %0) #1 comdat align 2 {
  %2 = alloca ptr, align 8
  %3 = alloca i32, align 4
  store ptr %0, ptr %2, align 8
  %4 = load ptr, ptr %2, align 8
  %5 = getelementptr inbounds %struct.hb_atomic_int_t, ptr %4, i32 0, i32 0
  %6 = load atomic i32, ptr %5 monotonic, align 4
  store i32 %6, ptr %3, align 4
  %7 = load i32, ptr %3, align 4
  ret i32 %7
}

; Function Attrs: mustprogress uwtable
define linkonce_odr hidden noundef i32 @_ZNK15hb_atomic_int_tcviEv(ptr noundef nonnull align 4 dereferenceable(4) %0) #0 comdat align 2 {
  %2 = alloca ptr, align 8
  store ptr %0, ptr %2, align 8
  %3 = load ptr, ptr %2, align 8
  %4 = call noundef i32 @_ZNK15hb_atomic_int_t11get_relaxedEv(ptr noundef nonnull align 4 dereferenceable(4) %3)
  ret i32 %4
}

; Function Attrs: mustprogress nounwind uwtable
define linkonce_odr hidden noundef i32 @_ZN15hb_atomic_int_t3incEv(ptr noundef nonnull align 4 dereferenceable(4) %0) #1 comdat align 2 {
  %2 = alloca ptr, align 8
  %3 = alloca i32, align 4
  %4 = alloca i32, align 4
  store ptr %0, ptr %2, align 8
  %5 = load ptr, ptr %2, align 8
  %6 = getelementptr inbounds %struct.hb_atomic_int_t, ptr %5, i32 0, i32 0
  store i32 1, ptr %3, align 4
  %7 = load i32, ptr %3, align 4
  %8 = atomicrmw add ptr %6, i32 %7 acq_rel, align 4
  store i32 %8, ptr %4, align 4
  %9 = load i32, ptr %4, align 4
  ret i32 %9
}

; Function Attrs: mustprogress nounwind uwtable
define internal void @_ZL13_hb_debug_msgILi0EEvPKcPKvS1_bjiS1_z(ptr noundef %0, ptr noundef %1, ptr noundef %2, i1 noundef zeroext %3, i32 noundef %4, i32 noundef %5, ptr noundef %6, ...) #1 {
  %8 = alloca ptr, align 8
  %9 = alloca ptr, align 8
  %10 = alloca ptr, align 8
  %11 = alloca i8, align 1
  %12 = alloca i32, align 4
  %13 = alloca i32, align 4
  %14 = alloca ptr, align 8
  store ptr %0, ptr %8, align 8
  store ptr %1, ptr %9, align 8
  store ptr %2, ptr %10, align 8
  %15 = zext i1 %3 to i8
  store i8 %15, ptr %11, align 1
  store i32 %4, ptr %12, align 4
  store i32 %5, ptr %13, align 4
  store ptr %6, ptr %14, align 8
  ret void
}

; Function Attrs: mustprogress uwtable
define linkonce_odr hidden noundef i32 @_ZNK20hb_reference_count_t11get_relaxedEv(ptr noundef nonnull align 4 dereferenceable(4) %0) #0 comdat align 2 {
  %2 = alloca ptr, align 8
  store ptr %0, ptr %2, align 8
  %3 = load ptr, ptr %2, align 8
  %4 = getelementptr inbounds %struct.hb_reference_count_t, ptr %3, i32 0, i32 0
  %5 = call noundef i32 @_ZNK15hb_atomic_int_tcviEv(ptr noundef nonnull align 4 dereferenceable(4) %4)
  ret i32 %5
}

; Function Attrs: mustprogress uwtable
define linkonce_odr hidden noundef i32 @_ZNK20hb_reference_count_t3incEv(ptr noundef nonnull align 4 dereferenceable(4) %0) #0 comdat align 2 {
  %2 = alloca ptr, align 8
  store ptr %0, ptr %2, align 8
  %3 = load ptr, ptr %2, align 8
  %4 = getelementptr inbounds %struct.hb_reference_count_t, ptr %3, i32 0, i32 0
  %5 = call noundef i32 @_ZN15hb_atomic_int_t3incEv(ptr noundef nonnull align 4 dereferenceable(4) %4)
  ret i32 %5
}

; Function Attrs: mustprogress uwtable
define linkonce_odr hidden noundef zeroext i1 @_ZNK18hb_object_header_t8is_inertEv(ptr noundef nonnull align 8 dereferenceable(16) %0) #0 comdat align 2 {
  %2 = alloca ptr, align 8
  store ptr %0, ptr %2, align 8
  %3 = load ptr, ptr %2, align 8
  %4 = getelementptr inbounds %struct.hb_object_header_t, ptr %3, i32 0, i32 0
  %5 = call noundef i32 @_ZNK20hb_reference_count_t11get_relaxedEv(ptr noundef nonnull align 4 dereferenceable(4) %4)
  %6 = icmp ne i32 %5, 0
  %7 = xor i1 %6, true
  ret i1 %7
}

; Function Attrs: mustprogress uwtable
define internal void @_ZL15hb_object_traceI15hb_draw_funcs_tEvPKT_PKc(ptr noundef %0, ptr noundef %1) #0 {
  %3 = alloca ptr, align 8
  %4 = alloca ptr, align 8
  store ptr %0, ptr %3, align 8
  store ptr %1, ptr %4, align 8
  %5 = load ptr, ptr %3, align 8
  %6 = load ptr, ptr %4, align 8
  %7 = load ptr, ptr %3, align 8
  %8 = icmp ne ptr %7, null
  br i1 %8, label %9, label %14

9:                                                ; preds = %2
  %10 = load ptr, ptr %3, align 8
  %11 = getelementptr inbounds %struct.hb_draw_funcs_t, ptr %10, i32 0, i32 0
  %12 = getelementptr inbounds %struct.hb_object_header_t, ptr %11, i32 0, i32 0
  %13 = call noundef i32 @_ZNK20hb_reference_count_t11get_relaxedEv(ptr noundef nonnull align 4 dereferenceable(4) %12)
  br label %15

14:                                               ; preds = %2
  br label %15

15:                                               ; preds = %14, %9
  %16 = phi i32 [ %13, %9 ], [ 0, %14 ]
  call void (ptr, ptr, ptr, i1, i32, i32, ptr, ...) @_ZL13_hb_debug_msgILi0EEvPKcPKvS1_bjiS1_z(ptr noundef @.str, ptr noundef %5, ptr noundef null, i1 noundef zeroext false, i32 noundef 0, i32 noundef 0, ptr noundef @.str.1, ptr noundef %6, i32 noundef %16)
  ret void
}

; Function Attrs: mustprogress uwtable
define internal noundef ptr @_ZL19hb_object_referenceI15hb_draw_funcs_tEPT_S2_(ptr noundef %0) #0 {
  %2 = alloca ptr, align 8
  %3 = alloca ptr, align 8
  store ptr %0, ptr %3, align 8
  %4 = load ptr, ptr %3, align 8
  call void @_ZL15hb_object_traceI15hb_draw_funcs_tEvPKT_PKc(ptr noundef %4, ptr noundef @__PRETTY_FUNCTION__._ZL19hb_object_referenceI15hb_draw_funcs_tEPT_S2_)
  %5 = load ptr, ptr %3, align 8
  %6 = icmp ne ptr %5, null
  br i1 %6, label %7, label %11

7:                                                ; preds = %1
  %8 = load ptr, ptr %3, align 8
  %9 = getelementptr inbounds %struct.hb_draw_funcs_t, ptr %8, i32 0, i32 0
  %10 = call noundef zeroext i1 @_ZNK18hb_object_header_t8is_inertEv(ptr noundef nonnull align 8 dereferenceable(16) %9)
  br i1 %10, label %11, label %13

11:                                               ; preds = %7, %1
  %12 = load ptr, ptr %3, align 8
  store ptr %12, ptr %2, align 8
  br label %19

13:                                               ; preds = %7
  %14 = load ptr, ptr %3, align 8
  %15 = getelementptr inbounds %struct.hb_draw_funcs_t, ptr %14, i32 0, i32 0
  %16 = getelementptr inbounds %struct.hb_object_header_t, ptr %15, i32 0, i32 0
  %17 = call noundef i32 @_ZNK20hb_reference_count_t3incEv(ptr noundef nonnull align 4 dereferenceable(4) %16)
  %18 = load ptr, ptr %3, align 8
  store ptr %18, ptr %2, align 8
  br label %19

19:                                               ; preds = %13, %11
  %20 = load ptr, ptr %2, align 8
  ret ptr %20
}

; Function Attrs: mustprogress uwtable
define hidden ptr @hb_draw_funcs_reference(ptr noundef %0) #0 {
  %2 = alloca ptr, align 8
  store ptr %0, ptr %2, align 8
  %3 = load ptr, ptr %2, align 8
  %4 = call noundef ptr @_ZL19hb_object_referenceI15hb_draw_funcs_tEPT_S2_(ptr noundef %3)
  ret ptr %4
}